target datalayout = "e-m:e-p270:32:32-p271:32:32-p272:64:64-i64:64-i128:128-f80:128-n8:16:32:64-S128"
target triple = "x86_64-pc-linux-gnu"

%struct.ImVec2 = type { float, float }
%struct.ImRect = type { %struct.ImVec2, %struct.ImVec2 }
%struct.ImGuiWindow = type <{ ptr, ptr, i32, i32, i32, [4 x i8], ptr, %struct.ImVec2, %struct.ImVec2, %struct.ImVec2, %struct.ImVec2, %struct.ImVec2, %struct.ImVec2, %struct.ImVec2, float, float, float, float, float, float, float, float, float, float, i32, i32, i32, i32, %struct.ImVec2, %struct.ImVec2, %struct.ImVec2, %struct.ImVec2, %struct.ImVec2, %struct.ImVec2, i8, i8, i8, i8, i8, i8, i8, i8, i8, i8, i8, i8, i8, i8, i8, i8, i16, i16, i16, i16, i16, i8, i8, i8, [3 x i8], i32, i8, i8, i8, i8, i32, %struct.ImVec2, %struct.ImVec2, [4 x i8], %struct.ImVector, %struct.ImGuiWindowTempData, %struct.ImRect, %struct.ImRect, %struct.ImRect, %struct.ImRect, %struct.ImRect, %struct.ImRect, %struct.ImRect, %struct.ImVec2ih, %struct.ImVec2ih, i32, float, float, [4 x i8], %struct.ImGuiStorage, %struct.ImVector.3, float, float, float, i32, ptr, %struct.ImDrawList, ptr, ptr, ptr, ptr, ptr, ptr, ptr, ptr, [2 x i32], [2 x %struct.ImRect], [2 x %struct.ImVec2], i32, i32, i32, i8, [3 x i8] }>
%struct.ImVector = type { i32, i32, ptr }
%struct.ImGuiWindowTempData = type { %struct.ImVec2, %struct.ImVec2, %struct.ImVec2, %struct.ImVec2, %struct.ImVec2, %struct.ImVec2, %struct.ImVec2, float, float, i8, i8, %struct.ImVec1, %struct.ImVec1, %struct.ImVec1, %struct.ImVec2, i32, i16, i16, i8, i8, i8, i8, %struct.ImVec2, %struct.ImGuiMenuColumns, i32, i32, %struct.ImVector.0, ptr, ptr, i32, i32, i32, i32, i32, i32, float, float, %struct.ImVector.1, %struct.ImVector.1 }
%struct.ImVec1 = type { float }
%struct.ImGuiMenuColumns = type <{ i32, i32, i16, i16, i16, i16, i16, [4 x i16], [2 x i8] }>
%struct.ImVector.0 = type { i32, i32, ptr }
%struct.ImVector.1 = type { i32, i32, ptr }
%struct.ImVec2ih = type { i16, i16 }
%struct.ImGuiStorage = type { %struct.ImVector.2 }
%struct.ImVector.2 = type { i32, i32, ptr }
%struct.ImVector.3 = type { i32, i32, ptr }
%struct.ImDrawList = type { %struct.ImVector.4, %struct.ImVector.5, %struct.ImVector.6, i32, i32, ptr, ptr, ptr, %struct.ImVector.7, %struct.ImDrawCmdHeader, %struct.ImDrawListSplitter, %struct.ImVector.9, %struct.ImVector.10, %struct.ImVector.11, float, ptr }
%struct.ImVector.4 = type { i32, i32, ptr }
%struct.ImVector.5 = type { i32, i32, ptr }
%struct.ImVector.6 = type { i32, i32, ptr }
%struct.ImVector.7 = type { i32, i32, ptr }
%struct.ImDrawCmdHeader = type <{ %struct.ImVec4, i64, i32, [4 x i8] }>
%struct.ImVec4 = type { float, float, float, float }
%struct.ImDrawListSplitter = type { i32, i32, %struct.ImVector.8 }
%struct.ImVector.8 = type { i32, i32, ptr }
%struct.ImVector.9 = type { i32, i32, ptr }
%struct.ImVector.10 = type { i32, i32, ptr }
%struct.ImVector.11 = type { i32, i32, ptr }
%struct.ImGuiContext = type { i8, i8, %struct.ImGuiIO, %struct.ImGuiPlatformIO, %struct.ImGuiStyle, ptr, float, float, float, float, %struct.ImDrawListSharedData, double, i32, i32, i32, i32, i8, i8, i8, i8, ptr, [16 x i8], %struct.ImVector.12, %struct.ImVector.12, i32, i32, %struct.ImVector.0, %struct.ImVector.0, %struct.ImVector.0, %struct.ImVector.13, %struct.ImGuiStorage, i32, float, i32, ptr, ptr, ptr, ptr, ptr, ptr, %struct.ImVec2, i32, i32, float, %struct.ImVec2, %struct.ImVec2, i32, i32, i32, i32, i32, float, float, i8, i8, i8, i32, i32, float, i8, i8, i8, i8, i8, i8, i8, i8, %struct.ImVec2, ptr, i32, i32, %struct.ImGuiDeactivatedItemData, %struct.ImGuiDataTypeStorage, i32, float, double, double, double, %struct.ImBitArray, [154 x %struct.ImGuiKeyOwnerData], %struct.ImGuiKeyRoutingTable, i32, i8, i32, i32, i32, i32, %struct.ImGuiNextItemData, %struct.ImGuiLastItemData, %struct.ImGuiNextWindowData, i8, i32, %struct.ImVector.15, %struct.ImVector.16, %struct.ImVector.17, %struct.ImVector.18, %struct.ImVector.19, %struct.ImVector.20, %struct.ImVector.21, %struct.ImVector.21, %struct.ImVector.22, %struct.ImVector.23, i8, i8, i8, i8, i32, ptr, i32, i32, i32, i32, i32, i32, %struct.ImVector.18, i32, float, i32, i32, i32, i64, i8, i8, i8, i8, %struct.ImGuiNavItemData, i8, i8, i8, i32, i32, i32, i32, i32, i32, %struct.ImRect, %struct.ImRect, i32, i32, i32, %struct.ImGuiNavItemData, %struct.ImGuiNavItemData, %struct.ImGuiNavItemData, %struct.ImGuiNavItemData, i32, i32, i32, i32, i8, i8, i32, i32, ptr, ptr, ptr, float, float, i8, i32, %struct.ImVec2, %struct.ImVec2, float, i8, i8, i8, i32, i32, i32, [4 x i8], %struct.ImGuiPayload, %struct.ImRect, %struct.ImRect, i32, i32, float, i32, i32, i32, i32, %struct.ImVector.11, [16 x i8], i32, %struct.ImVector.24, ptr, i32, i32, %struct.ImVector.25, %struct.ImPool, %struct.ImVector.1, %struct.ImVector.8, ptr, %struct.ImPool.27, %struct.ImVector.29, %struct.ImVector.30, %struct.ImGuiBoxSelectState, ptr, i32, %struct.ImVector.31, %struct.ImPool.32, i32, i32, float, float, i32, i32, i32, float, %struct.ImVec2, %struct.ImGuiInputTextState, %struct.ImGuiInputTextDeactivatedState, %struct.ImFont, i32, %struct.ImGuiDataTypeStorage, i32, i32, i32, i32, i32, float, float, i32, %struct.ImVec4, %struct.ImGuiComboPreviewData, %struct.ImRect, i8, i16, float, float, float, i8, i8, float, float, float, i16, i16, ptr, %struct.ImVector.34, %struct.ImVector, %struct.ImGuiTypingSelectState, %struct.ImGuiPlatformImeData, %struct.ImGuiPlatformImeData, i8, float, %struct.ImGuiTextBuffer, %struct.ImVector.36, %struct.ImChunkStream, %struct.ImChunkStream.37, %struct.ImVector.38, i32, [10 x ptr], i8, i32, ptr, ptr, %struct.ImGuiTextBuffer, ptr, ptr, float, i8, i32, i32, i32, ptr, ptr, %struct.ImVec2, i8, i32, %struct.ImGuiErrorRecoveryState, ptr, i32, i32, %struct.ImGuiTextBuffer, %struct.ImGuiTextIndex, i32, i32, i8, i8, i8, i32, i8, i8, i8, i32, float, %struct.ImVec4, %struct.ImGuiMetricsConfig, %struct.ImGuiIDStackTool, %struct.ImGuiDebugAllocInfo, [60 x float], i32, i32, float, i32, i32, i32, %struct.ImVector.34, [64 x i8] }
%struct.ImGuiIO = type { i32, i32, %struct.ImVec2, float, float, ptr, ptr, ptr, ptr, float, i8, ptr, %struct.ImVec2, i8, i8, i8, i8, i8, i8, i8, i8, i8, i8, i8, i8, i8, i8, i8, i8, i8, float, float, float, float, float, float, i8, i8, i8, i8, i8, i8, i8, i8, i8, i8, ptr, ptr, ptr, ptr, ptr, i8, i8, i8, i8, i8, i8, i8, float, i32, i32, i32, i32, %struct.ImVec2, ptr, %struct.ImVec2, [5 x i8], float, float, i32, i8, i8, i8, i8, i32, [154 x %struct.ImGuiKeyData], i8, %struct.ImVec2, [5 x %struct.ImVec2], [5 x double], [5 x i8], [5 x i8], [5 x i16], [5 x i16], [5 x i8], [5 x double], [5 x i8], [5 x i8], i8, i8, [5 x float], [5 x float], [5 x float], float, i8, i8, i16, %struct.ImVector.5, ptr, ptr, ptr }
%struct.ImGuiKeyData = type { i8, float, float, float }
%struct.ImGuiPlatformIO = type { ptr, ptr, ptr, ptr, ptr, ptr, ptr, i16, ptr }
%struct.ImGuiStyle = type { float, float, %struct.ImVec2, float, float, float, %struct.ImVec2, %struct.ImVec2, i32, float, float, float, float, %struct.ImVec2, float, float, %struct.ImVec2, %struct.ImVec2, %struct.ImVec2, %struct.ImVec2, float, float, float, float, float, float, float, float, float, float, float, float, float, float, %struct.ImVec2, i32, %struct.ImVec2, %struct.ImVec2, float, %struct.ImVec2, %struct.ImVec2, %struct.ImVec2, %struct.ImVec2, float, i8, i8, i8, float, float, [56 x %struct.ImVec4], float, float, float, i32, i32 }
%struct.ImDrawListSharedData = type <{ %struct.ImVec2, ptr, ptr, float, float, float, float, float, i32, %struct.ImVec4, %struct.ImVector.7, [48 x %struct.ImVec2], float, [64 x i8], [4 x i8] }>
%struct.ImVector.12 = type { i32, i32, ptr }
%struct.ImVector.13 = type { i32, i32, ptr }
%struct.ImGuiDeactivatedItemData = type { i32, i32, i8, i8 }
%struct.ImBitArray = type { [5 x i32] }
%struct.ImGuiKeyOwnerData = type <{ i32, i32, i8, i8, [2 x i8] }>
%struct.ImGuiKeyRoutingTable = type { [154 x i16], %struct.ImVector.14, %struct.ImVector.14 }
%struct.ImVector.14 = type { i32, i32, ptr }
%struct.ImGuiNextItemData = type <{ i32, i32, i32, [4 x i8], i64, float, i32, i32, i8, i8, %struct.ImGuiDataTypeStorage, [2 x i8], i32, [4 x i8] }>
%struct.ImGuiLastItemData = type { i32, i32, i32, %struct.ImRect, %struct.ImRect, %struct.ImRect, %struct.ImRect, i32 }
%struct.ImGuiNextWindowData = type { i32, i32, i32, i32, %struct.ImVec2, %struct.ImVec2, %struct.ImVec2, %struct.ImVec2, %struct.ImVec2, i32, i32, i8, %struct.ImRect, ptr, ptr, float, %struct.ImVec2, i32 }
%struct.ImVector.15 = type { i32, i32, ptr }
%struct.ImVector.16 = type { i32, i32, ptr }
%struct.ImVector.17 = type { i32, i32, ptr }
%struct.ImVector.19 = type { i32, i32, ptr }
%struct.ImVector.20 = type { i32, i32, ptr }
%struct.ImVector.21 = type { i32, i32, ptr }
%struct.ImVector.22 = type { i32, i32, ptr }
%struct.ImVector.23 = type { i32, i32, ptr }
%struct.ImVector.18 = type { i32, i32, ptr }
%struct.ImGuiNavItemData = type { ptr, i32, i32, %struct.ImRect, i32, float, float, float, i64 }
%struct.ImGuiPayload = type <{ ptr, i32, i32, i32, i32, [33 x i8], i8, i8, [5 x i8] }>
%struct.ImVector.24 = type { i32, i32, ptr }
%struct.ImVector.25 = type { i32, i32, ptr }
%struct.ImPool = type { %struct.ImVector.26, %struct.ImGuiStorage, i32, i32 }
%struct.ImVector.26 = type { i32, i32, ptr }
%struct.ImPool.27 = type { %struct.ImVector.28, %struct.ImGuiStorage, i32, i32 }
%struct.ImVector.28 = type { i32, i32, ptr }
%struct.ImVector.29 = type { i32, i32, ptr }
%struct.ImVector.30 = type { i32, i32, ptr }
%struct.ImGuiBoxSelectState = type <{ i32, i8, i8, i8, i8, i8, i16, i8, %struct.ImVec2, %struct.ImVec2, %struct.ImVec2, [4 x i8], ptr, i8, [3 x i8], %struct.ImRect, %struct.ImRect, %struct.ImRect, [4 x i8] }>
%struct.ImVector.31 = type { i32, i32, ptr }
%struct.ImPool.32 = type { %struct.ImVector.33, %struct.ImGuiStorage, i32, i32 }
%struct.ImVector.33 = type { i32, i32, ptr }
%struct.ImGuiInputTextState = type <{ ptr, ptr, i32, i32, i32, [4 x i8], ptr, %struct.ImVector.34, %struct.ImVector.34, %struct.ImVector.34, i32, %struct.ImVec2, float, i8, i8, i8, i8, i32, i32, [4 x i8] }>
%struct.ImGuiInputTextDeactivatedState = type { i32, %struct.ImVector.34 }
%struct.ImFont = type <{ %struct.ImVector.1, float, float, %struct.ImVector.5, %struct.ImVector.35, ptr, ptr, ptr, i16, i16, i16, i16, float, float, float, float, float, i32, i8, [1 x i8], [6 x i8] }>
%struct.ImVector.35 = type { i32, i32, ptr }
%struct.ImGuiDataTypeStorage = type { [8 x i8] }
%struct.ImGuiComboPreviewData = type { %struct.ImRect, %struct.ImVec2, %struct.ImVec2, %struct.ImVec2, float, i32 }
%struct.ImGuiTypingSelectState = type <{ %struct.ImGuiTypingSelectRequest, [64 x i8], i32, i32, float, i8, [3 x i8] }>
%struct.ImGuiTypingSelectRequest = type { i32, i32, ptr, i8, i8, i8 }
%struct.ImGuiPlatformImeData = type { i8, %struct.ImVec2, float }
%struct.ImVector.36 = type { i32, i32, ptr }
%struct.ImChunkStream = type { %struct.ImVector.34 }
%struct.ImChunkStream.37 = type { %struct.ImVector.34 }
%struct.ImVector.38 = type { i32, i32, ptr }
%struct.ImGuiErrorRecoveryState = type { i16, i16, i16, i16, i16, i16, i16, i16, i16, i16, i16 }
%struct.ImGuiTextBuffer = type { %struct.ImVector.34 }
%struct.ImGuiTextIndex = type <{ %struct.ImVector.19, i32, [4 x i8] }>
%struct.ImGuiMetricsConfig = type { i8, i8, i8, i8, i8, i8, i8, i8, i8, i32, i32, i32, i32 }
%struct.ImGuiIDStackTool = type { i32, i32, i32, %struct.ImVector.39, i8, float }
%struct.ImVector.39 = type { i32, i32, ptr }
%struct.ImGuiDebugAllocInfo = type { i32, i32, i16, [6 x %struct.ImGuiDebugAllocEntry] }
%struct.ImGuiDebugAllocEntry = type { i32, i16, i16 }
%struct.ImVector.34 = type { i32, i32, ptr }

@GImGui = external global ptr, align 8
@.str.128 = private unnamed_addr constant [58 x i8] c"Needs to be called between BeginTabBar() and EndTabBar()!\00", align 1

; Function Attrs: mustprogress uwtable
define void @_ZN5ImGui14TabItemSpacingEPKcif(ptr noundef %0, i32 noundef %1, float noundef %2) #9 {
  %4 = alloca ptr, align 8
  %5 = alloca i32, align 4
  %6 = alloca float, align 4
  %7 = alloca ptr, align 8
  %8 = alloca ptr, align 8
  %9 = alloca i32, align 4
  %10 = alloca ptr, align 8
  store ptr %0, ptr %4, align 8, !tbaa !3
  store i32 %1, ptr %5, align 4, !tbaa !8
  store float %2, ptr %6, align 4, !tbaa !69
  call void @llvm.lifetime.start.p0(i64 8, ptr %7) #17
  %11 = load ptr, ptr @GImGui, align 8, !tbaa !64
  store ptr %11, ptr %7, align 8, !tbaa !64
  call void @llvm.lifetime.start.p0(i64 8, ptr %8) #17
  %12 = load ptr, ptr %7, align 8, !tbaa !64
  %13 = getelementptr inbounds nuw %struct.ImGuiContext, ptr %12, i32 0, i32 34
  %14 = load ptr, ptr %13, align 8, !tbaa !173
  store ptr %14, ptr %8, align 8, !tbaa !10
  %15 = load ptr, ptr %8, align 8, !tbaa !10
  %16 = getelementptr inbounds nuw %struct.ImGuiWindow, ptr %15, i32 0, i32 41
  %17 = load i8, ptr %16, align 1, !tbaa !12, !range !62, !noundef !63
  %18 = trunc i8 %17 to i1
  br i1 %18, label %19, label %20

19:                                               ; preds = %3
  store i32 1, ptr %9, align 4
  br label %46

20:                                               ; preds = %3
  call void @llvm.lifetime.start.p0(i64 8, ptr %10) #17
  %21 = load ptr, ptr %7, align 8, !tbaa !64
  %22 = getelementptr inbounds nuw %struct.ImGuiContext, ptr %21, i32 0, i32 190
  %23 = load ptr, ptr %22, align 8, !tbaa !855
  store ptr %23, ptr %10, align 8, !tbaa !833
  %24 = load ptr, ptr %10, align 8, !tbaa !833
  %25 = icmp eq ptr %24, null
  br i1 %25, label %26, label %36

26:                                               ; preds = %20
  br label %27

27:                                               ; preds = %26
  %28 = load ptr, ptr %10, align 8, !tbaa !833
  %29 = icmp ne ptr %28, null
  br i1 %29, label %33, label %30

30:                                               ; preds = %27
  %31 = call noundef zeroext i1 @_ZN5ImGui8ErrorLogEPKc(ptr noundef @.str.128)
  br i1 %31, label %32, label %33

32:                                               ; preds = %30
  br label %33

33:                                               ; preds = %32, %30, %27
  br label %34

34:                                               ; preds = %33
  br label %35

35:                                               ; preds = %34
  store i32 1, ptr %9, align 4
  br label %45

36:                                               ; preds = %20
  %37 = load float, ptr %6, align 4, !tbaa !69
  call void @_ZN5ImGui16SetNextItemWidthEf(float noundef %37)
  %38 = load ptr, ptr %10, align 8, !tbaa !833
  %39 = load ptr, ptr %4, align 8, !tbaa !3
  %40 = load i32, ptr %5, align 4, !tbaa !8
  %41 = or i32 %40, 2097152
  %42 = or i32 %41, 32
  %43 = or i32 %42, 4194304
  %44 = call noundef zeroext i1 @_ZN5ImGui9TabItemExEP11ImGuiTabBarPKcPbiP11ImGuiWindow(ptr noundef %38, ptr noundef %39, ptr noundef null, i32 noundef %43, ptr noundef null)
  store i32 0, ptr %9, align 4
  br label %45

45:                                               ; preds = %36, %35
  call void @llvm.lifetime.end.p0(i64 8, ptr %10) #17
  br label %46

46:                                               ; preds = %45, %19
  call void @llvm.lifetime.end.p0(i64 8, ptr %8) #17
  call void @llvm.lifetime.end.p0(i64 8, ptr %7) #17
  %47 = load i32, ptr %9, align 4
  switch i32 %47, label %49 [
    i32 0, label %48
    i32 1, label %48
  ]

48:                                               ; preds = %46, %46
  ret void

49:                                               ; preds = %46
  unreachable
}