; Function Attrs: mustprogress uwtable
define void @_ZN5ImGui14TabItemSpacingEPKcif(ptr noundef %0, i32 noundef %1, float noundef %2) local_unnamed_addr #6 {
  %4 = load ptr, ptr @GImGui, align 8, !tbaa !3
  %5 = getelementptr inbounds nuw i8, ptr %4, i64 5016
  %6 = load ptr, ptr %5, align 8, !tbaa !8
  %7 = getelementptr inbounds nuw i8, ptr %6, i64 207
  %8 = load i8, ptr %7, align 1, !tbaa !152, !range !153, !noundef !154
  %9 = trunc nuw i8 %8 to i1
  br i1 %9, label %19, label %10

10:                                               ; preds = %3
  %11 = getelementptr inbounds nuw i8, ptr %4, i64 8744
  %12 = load ptr, ptr %11, align 8, !tbaa !753
  %13 = icmp eq ptr %12, null
  br i1 %13, label %14, label %16

14:                                               ; preds = %10
  %15 = tail call noundef zeroext i1 @_ZN5ImGui8ErrorLogEPKc(ptr noundef nonnull @.str.128)
  br label %19

16:                                               ; preds = %10
  tail call void @_ZN5ImGui16SetNextItemWidthEf(float noundef %2)
  %17 = or i32 %1, 6291488
  %18 = tail call noundef zeroext i1 @_ZN5ImGui9TabItemExEP11ImGuiTabBarPKcPbiP11ImGuiWindow(ptr noundef nonnull %12, ptr noundef %0, ptr noundef null, i32 noundef %17, ptr noundef null)
  br label %19

19:                                               ; preds = %14, %16, %3
  ret void
}